; Function Attrs: nofree nounwind uwtable
define void @Gia_ManPrintCo(ptr noundef %0, ptr noundef %1) local_unnamed_addr #15 {
  %.val = load i64, ptr %1, align 4
  %3 = lshr i64 %.val, 32
  %4 = trunc nuw i64 %3 to i32
  %5 = and i32 %4, 536870911
  %6 = tail call i32 (ptr, ...) @printf(ptr noundef nonnull dereferenceable(1) @.str.21, i32 noundef %5)
  %7 = load i64, ptr %1, align 4
  %8 = and i64 %7, 536870911
  %9 = sub nsw i64 0, %8
  %10 = getelementptr inbounds %struct.Gia_Obj_t_, ptr %1, i64 %9
  tail call void @Gia_ManPrintCo_rec(ptr noundef %0, ptr noundef nonnull %10)
  tail call void @Gia_ObjPrint(ptr noundef %0, ptr noundef nonnull %1)
  ret void
}